; Function Attrs: nounwind uwtable
define ptr @l_Lean_evalConstCheck___at_Lean_Meta_reduceBoolNativeUnsafe___spec__1___rarg(ptr noundef %0, ptr noundef %1, ptr noundef %2, ptr noundef %3, ptr noundef %4, ptr noundef %5, ptr noundef %6) local_unnamed_addr #1 {
  %8 = tail call ptr @lean_st_ref_get(ptr noundef %5, ptr noundef %6) #5
  %9 = getelementptr inbounds nuw i8, ptr %8, i64 8
  %10 = load ptr, ptr %9, align 8, !tbaa !12
  %11 = ptrtoint ptr %10 to i64
  %12 = and i64 %11, 1
  %.not = icmp eq i64 %12, 0
  br i1 %.not, label %13, label %lean_inc.exit26

13:                                               ; preds = %7
  %.val.i = load i32, ptr %10, align 4, !tbaa !4
  %14 = icmp sgt i32 %.val.i, 0
  br i1 %14, label %15, label %17, !prof !11

15:                                               ; preds = %13
  %16 = add nuw i32 %.val.i, 1
  store i32 %16, ptr %10, align 4, !tbaa !4
  br label %lean_inc.exit26

17:                                               ; preds = %13
  %.not.i31 = icmp eq i32 %.val.i, 0
  br i1 %.not.i31, label %lean_inc.exit26, label %18

18:                                               ; preds = %17
  tail call void @lean_inc_ref_cold(ptr noundef nonnull %10) #5
  br label %lean_inc.exit26

lean_inc.exit26:                                  ; preds = %18, %17, %15, %7
  %19 = getelementptr inbounds nuw i8, ptr %8, i64 16
  %20 = load ptr, ptr %19, align 8, !tbaa !12
  %21 = ptrtoint ptr %20 to i64
  %22 = and i64 %21, 1
  %.not38 = icmp eq i64 %22, 0
  br i1 %.not38, label %23, label %lean_inc.exit25

23:                                               ; preds = %lean_inc.exit26
  %.val.i32 = load i32, ptr %20, align 4, !tbaa !4
  %24 = icmp sgt i32 %.val.i32, 0
  br i1 %24, label %25, label %27, !prof !11

25:                                               ; preds = %23
  %26 = add nuw i32 %.val.i32, 1
  store i32 %26, ptr %20, align 4, !tbaa !4
  br label %lean_inc.exit25

27:                                               ; preds = %23
  %.not.i33 = icmp eq i32 %.val.i32, 0
  br i1 %.not.i33, label %lean_inc.exit25, label %28

28:                                               ; preds = %27
  tail call void @lean_inc_ref_cold(ptr noundef nonnull %20) #5
  br label %lean_inc.exit25

lean_inc.exit25:                                  ; preds = %28, %27, %25, %lean_inc.exit26
  %29 = ptrtoint ptr %8 to i64
  %30 = and i64 %29, 1
  %.not39 = icmp eq i64 %30, 0
  br i1 %.not39, label %31, label %lean_dec.exit24

31:                                               ; preds = %lean_inc.exit25
  %32 = load i32, ptr %8, align 4, !tbaa !4
  %33 = icmp sgt i32 %32, 1
  br i1 %33, label %34, label %36, !prof !11

34:                                               ; preds = %31
  %35 = add nsw i32 %32, -1
  store i32 %35, ptr %8, align 4, !tbaa !4
  br label %lean_dec.exit24

36:                                               ; preds = %31
  %.not.i = icmp eq i32 %32, 0
  br i1 %.not.i, label %lean_dec.exit24, label %37

37:                                               ; preds = %36
  tail call void @lean_dec_ref_cold(ptr noundef nonnull %8) #5
  br label %lean_dec.exit24

lean_dec.exit24:                                  ; preds = %37, %36, %34, %lean_inc.exit25
  %38 = getelementptr inbounds nuw i8, ptr %10, i64 8
  %39 = load ptr, ptr %38, align 8, !tbaa !12
  %40 = ptrtoint ptr %39 to i64
  %41 = and i64 %40, 1
  %.not40 = icmp eq i64 %41, 0
  br i1 %.not40, label %42, label %lean_inc.exit

42:                                               ; preds = %lean_dec.exit24
  %.val.i35 = load i32, ptr %39, align 4, !tbaa !4
  %43 = icmp sgt i32 %.val.i35, 0
  br i1 %43, label %44, label %46, !prof !11

44:                                               ; preds = %42
  %45 = add nuw i32 %.val.i35, 1
  store i32 %45, ptr %39, align 4, !tbaa !4
  br label %lean_inc.exit

46:                                               ; preds = %42
  %.not.i36 = icmp eq i32 %.val.i35, 0
  br i1 %.not.i36, label %lean_inc.exit, label %47

47:                                               ; preds = %46
  tail call void @lean_inc_ref_cold(ptr noundef nonnull %39) #5
  br label %lean_inc.exit

lean_inc.exit:                                    ; preds = %47, %46, %44, %lean_dec.exit24
  br i1 %.not, label %48, label %lean_dec.exit23

48:                                               ; preds = %lean_inc.exit
  %49 = load i32, ptr %10, align 4, !tbaa !4
  %50 = icmp sgt i32 %49, 1
  br i1 %50, label %51, label %53, !prof !11

51:                                               ; preds = %48
  %52 = add nsw i32 %49, -1
  store i32 %52, ptr %10, align 4, !tbaa !4
  br label %lean_dec.exit23

53:                                               ; preds = %48
  %.not.i27 = icmp eq i32 %49, 0
  br i1 %.not.i27, label %lean_dec.exit23, label %54

54:                                               ; preds = %53
  tail call void @lean_dec_ref_cold(ptr noundef nonnull %10) #5
  br label %lean_dec.exit23

lean_dec.exit23:                                  ; preds = %54, %53, %51, %lean_inc.exit
  %55 = getelementptr inbounds nuw i8, ptr %4, i64 24
  %56 = load ptr, ptr %55, align 8, !tbaa !12
  %57 = tail call ptr @l_Lean_Environment_evalConstCheck___rarg(ptr noundef %39, ptr noundef %56, ptr noundef %0, ptr noundef %1) #5
  %58 = tail call ptr @l_Lean_ofExcept___at_Lean_Meta_reduceBoolNativeUnsafe___spec__2___rarg(ptr noundef %57, ptr noundef %2, ptr noundef %3, ptr noundef %4, ptr noundef %5, ptr noundef %20)
  %59 = ptrtoint ptr %57 to i64
  %60 = and i64 %59, 1
  %.not41 = icmp eq i64 %60, 0
  br i1 %.not41, label %61, label %lean_dec.exit

61:                                               ; preds = %lean_dec.exit23
  %62 = load i32, ptr %57, align 4, !tbaa !4
  %63 = icmp sgt i32 %62, 1
  br i1 %63, label %64, label %66, !prof !11

64:                                               ; preds = %61
  %65 = add nsw i32 %62, -1
  store i32 %65, ptr %57, align 4, !tbaa !4
  br label %lean_dec.exit

66:                                               ; preds = %61
  %.not.i29 = icmp eq i32 %62, 0
  br i1 %.not.i29, label %lean_dec.exit, label %67

67:                                               ; preds = %66
  tail call void @lean_dec_ref_cold(ptr noundef nonnull %57) #5
  br label %lean_dec.exit

lean_dec.exit:                                    ; preds = %67, %66, %64, %lean_dec.exit23
  ret ptr %58
}